target datalayout = "e-m:e-p270:32:32-p271:32:32-p272:64:64-i64:64-i128:128-f80:128-n8:16:32:64-S128"
target triple = "x86_64-pc-linux-gnu"

%"class.LIEF::MachO::Relocation" = type { %"class.LIEF::Relocation.base", ptr, i8, i32, ptr, ptr }
%"class.LIEF::Relocation.base" = type <{ %"class.LIEF::Object", i64, i8 }>
%"class.LIEF::Object" = type { ptr }

; Function Attrs: mustprogress nounwind uwtable
define void @_ZN4LIEF5MachO14RelocationDyld11pc_relativeEb(ptr noundef nonnull align 8 dereferenceable(56) %0, i1 noundef zeroext %1) unnamed_addr #0 align 2 {
  %3 = alloca ptr, align 8
  %4 = alloca i8, align 1
  store ptr %0, ptr %3, align 8, !tbaa !3
  %5 = zext i1 %1 to i8
  store i8 %5, ptr %4, align 1, !tbaa !10
  %6 = load ptr, ptr %3, align 8
  %7 = load ptr, ptr %6, align 8, !tbaa !8
  %8 = getelementptr inbounds ptr, ptr %7, i64 14
  %9 = load ptr, ptr %8, align 8
  %10 = call noundef zeroext i1 %9(ptr noundef nonnull align 8 dereferenceable(56) %6)
  %11 = zext i1 %10 to i32
  %12 = load i8, ptr %4, align 1, !tbaa !10, !range !12, !noundef !13
  %13 = trunc i8 %12 to i1
  %14 = zext i1 %13 to i32
  %15 = icmp eq i32 %11, %14
  br i1 %15, label %16, label %17

16:                                               ; preds = %2
  br label %33

17:                                               ; preds = %2
  %18 = load i8, ptr %4, align 1, !tbaa !10, !range !12, !noundef !13
  %19 = trunc i8 %18 to i1
  br i1 %19, label %20, label %22

20:                                               ; preds = %17
  %21 = getelementptr inbounds nuw %"class.LIEF::MachO::Relocation", ptr %6, i32 0, i32 2
  store i8 3, ptr %21, align 8, !tbaa !14
  br label %33

22:                                               ; preds = %17
  %23 = load ptr, ptr %6, align 8, !tbaa !8
  %24 = getelementptr inbounds ptr, ptr %23, i64 6
  %25 = load ptr, ptr %24, align 8
  %26 = call noundef i64 %25(ptr noundef nonnull align 8 dereferenceable(17) %6)
  %27 = icmp eq i64 %26, 32
  br i1 %27, label %28, label %30

28:                                               ; preds = %22
  %29 = getelementptr inbounds nuw %"class.LIEF::MachO::Relocation", ptr %6, i32 0, i32 2
  store i8 2, ptr %29, align 8, !tbaa !14
  br label %32

30:                                               ; preds = %22
  %31 = getelementptr inbounds nuw %"class.LIEF::MachO::Relocation", ptr %6, i32 0, i32 2
  store i8 1, ptr %31, align 8, !tbaa !14
  br label %32

32:                                               ; preds = %30, %28
  br label %33

33:                                               ; preds = %16, %32, %20
  ret void
}