; Function Attrs: mustprogress nounwind uwtable
define void @_ZN4LIEF5MachO14RelocationDyld11pc_relativeEb(ptr noundef nonnull align 8 dereferenceable(56) %0, i1 noundef zeroext %1) unnamed_addr #0 align 2 {
  %3 = load ptr, ptr %0, align 8, !tbaa !3
  %4 = getelementptr inbounds nuw i8, ptr %3, i64 112
  %5 = load ptr, ptr %4, align 8
  %6 = tail call noundef zeroext i1 %5(ptr noundef nonnull align 8 dereferenceable(56) %0) #5
  %7 = xor i1 %1, %6
  br i1 %7, label %8, label %20

8:                                                ; preds = %2
  br i1 %1, label %9, label %11

9:                                                ; preds = %8
  %10 = getelementptr inbounds nuw i8, ptr %0, i64 32
  store i8 3, ptr %10, align 8, !tbaa !6
  br label %20

11:                                               ; preds = %8
  %12 = load ptr, ptr %0, align 8, !tbaa !3
  %13 = getelementptr inbounds nuw i8, ptr %12, i64 48
  %14 = load ptr, ptr %13, align 8
  %15 = tail call noundef i64 %14(ptr noundef nonnull align 8 dereferenceable(17) %0) #5
  %16 = icmp eq i64 %15, 32
  %17 = getelementptr inbounds nuw i8, ptr %0, i64 32
  br i1 %16, label %18, label %19

18:                                               ; preds = %11
  store i8 2, ptr %17, align 8, !tbaa !6
  br label %20

19:                                               ; preds = %11
  store i8 1, ptr %17, align 8, !tbaa !6
  br label %20

20:                                               ; preds = %18, %19, %2, %9
  ret void
}